target datalayout = "e-m:e-p270:32:32-p271:32:32-p272:64:64-i64:64-i128:128-f80:128-n8:16:32:64-S128"
target triple = "x86_64-pc-linux-gnu"

%struct.VAAPIFormat = type { i32, i32, i32, i32 }
%struct.AVHWDeviceContext = type { ptr, i32, ptr, ptr, ptr }
%struct.VAAPIDeviceContext = type { %struct.AVVAAPIDeviceContext, ptr, i32 }
%struct.AVVAAPIDeviceContext = type { ptr, i32 }
%struct._VAImageFormat = type { i32, i32, i32, i32, i32, i32, i32, i32, [4 x i32] }
%struct.VAAPISurfaceFormat = type { i32, %struct._VAImageFormat }
%struct.anon = type { ptr, ptr, i32 }

@.str.40 = private unnamed_addr constant [24 x i8] c"Format %#x -> unknown.\0A\00", align 1
@.str.41 = private unnamed_addr constant [19 x i8] c"Format %#x -> %s.\0A\00", align 1
@.str.42 = private unnamed_addr constant [19 x i8] c"VAAPI driver: %s.\0A\00", align 1
@.str.43 = private unnamed_addr constant [33 x i8] c"Using quirks set by user (%#x).\0A\00", align 1
@.str.44 = private unnamed_addr constant [79 x i8] c"Matched driver string as known nonstandard driver \22%s\22, setting quirks (%#x).\0A\00", align 1
@.str.45 = private unnamed_addr constant [71 x i8] c"Driver not found in known nonstandard list, using standard behaviour.\0A\00", align 1
@.str.46 = private unnamed_addr constant [59 x i8] c"Driver has no vendor string, assuming standard behaviour.\0A\00", align 1
@vaapi_driver_quirks_table = internal constant [2 x { ptr, ptr, i32, [4 x i8] }] [{ ptr, ptr, i32, [4 x i8] } { ptr @.str.47, ptr @.str.48, i32 4, [4 x i8] zeroinitializer }, { ptr, ptr, i32, [4 x i8] } { ptr @.str.49, ptr @.str.50, i32 8, [4 x i8] zeroinitializer }], align 16

; Function Attrs: nounwind uwtable
define internal ptr @vaapi_format_from_fourcc(i32 noundef %0) #0 {
  %2 = alloca ptr, align 8
  %3 = alloca i32, align 4
  %4 = alloca i32, align 4
  %5 = alloca i32, align 4
  store i32 %0, ptr %3, align 4, !tbaa !13
  call void @llvm.lifetime.start.p0(i64 4, ptr %4) #10
  store i32 0, ptr %4, align 4, !tbaa !13
  br label %6

6:                                                ; preds = %23, %1
  %7 = load i32, ptr %4, align 4, !tbaa !13
  %8 = sext i32 %7 to i64
  %9 = icmp ult i64 %8, 28
  br i1 %9, label %10, label %26

10:                                               ; preds = %6
  %11 = load i32, ptr %4, align 4, !tbaa !13
  %12 = sext i32 %11 to i64
  %13 = getelementptr inbounds [28 x %struct.VAAPIFormat], ptr @vaapi_format_map, i64 0, i64 %12
  %14 = getelementptr inbounds nuw %struct.VAAPIFormat, ptr %13, i32 0, i32 0
  %15 = load i32, ptr %14, align 16, !tbaa !125
  %16 = load i32, ptr %3, align 4, !tbaa !13
  %17 = icmp eq i32 %15, %16
  br i1 %17, label %18, label %22

18:                                               ; preds = %10
  %19 = load i32, ptr %4, align 4, !tbaa !13
  %20 = sext i32 %19 to i64
  %21 = getelementptr inbounds [28 x %struct.VAAPIFormat], ptr @vaapi_format_map, i64 0, i64 %20
  store ptr %21, ptr %2, align 8
  store i32 1, ptr %5, align 4
  br label %27

22:                                               ; preds = %10
  br label %23

23:                                               ; preds = %22
  %24 = load i32, ptr %4, align 4, !tbaa !13
  %25 = add nsw i32 %24, 1
  store i32 %25, ptr %4, align 4, !tbaa !13
  br label %6, !llvm.loop !159

26:                                               ; preds = %6
  store ptr null, ptr %2, align 8
  store i32 1, ptr %5, align 4
  br label %27

27:                                               ; preds = %26, %18
  call void @llvm.lifetime.end.p0(i64 4, ptr %4) #10
  %28 = load ptr, ptr %2, align 8
  ret ptr %28
}

; Function Attrs: nounwind uwtable
define internal i32 @vaapi_pix_fmt_from_fourcc(i32 noundef %0) #0 {
  %2 = alloca i32, align 4
  %3 = alloca i32, align 4
  %4 = alloca ptr, align 8
  %5 = alloca i32, align 4
  store i32 %0, ptr %3, align 4, !tbaa !13
  call void @llvm.lifetime.start.p0(i64 8, ptr %4) #10
  %6 = load i32, ptr %3, align 4, !tbaa !13
  %7 = call ptr @vaapi_format_from_fourcc(i32 noundef %6)
  store ptr %7, ptr %4, align 8, !tbaa !110
  %8 = load ptr, ptr %4, align 8, !tbaa !110
  %9 = icmp ne ptr %8, null
  br i1 %9, label %10, label %14

10:                                               ; preds = %1
  %11 = load ptr, ptr %4, align 8, !tbaa !110
  %12 = getelementptr inbounds nuw %struct.VAAPIFormat, ptr %11, i32 0, i32 2
  %13 = load i32, ptr %12, align 4, !tbaa !158
  store i32 %13, ptr %2, align 4
  store i32 1, ptr %5, align 4
  br label %15

14:                                               ; preds = %1
  store i32 -1, ptr %2, align 4
  store i32 1, ptr %5, align 4
  br label %15

15:                                               ; preds = %14, %10
  call void @llvm.lifetime.end.p0(i64 8, ptr %4) #10
  %16 = load i32, ptr %2, align 4
  ret i32 %16
}

; Function Attrs: nounwind uwtable
define internal i32 @vaapi_device_init(ptr noundef %0) #0 {
  %2 = alloca i32, align 4
  %3 = alloca ptr, align 8
  %4 = alloca ptr, align 8
  %5 = alloca ptr, align 8
  %6 = alloca ptr, align 8
  %7 = alloca i32, align 4
  %8 = alloca ptr, align 8
  %9 = alloca i32, align 4
  %10 = alloca i32, align 4
  %11 = alloca i32, align 4
  %12 = alloca i32, align 4
  %13 = alloca i32, align 4
  %14 = alloca i32, align 4
  store ptr %0, ptr %3, align 8, !tbaa !4
  call void @llvm.lifetime.start.p0(i64 8, ptr %4) #10
  %15 = load ptr, ptr %3, align 8, !tbaa !4
  %16 = getelementptr inbounds nuw %struct.AVHWDeviceContext, ptr %15, i32 0, i32 2
  %17 = load ptr, ptr %16, align 8, !tbaa !43
  store ptr %17, ptr %4, align 8, !tbaa !50
  call void @llvm.lifetime.start.p0(i64 8, ptr %5) #10
  %18 = load ptr, ptr %4, align 8, !tbaa !50
  %19 = getelementptr inbounds nuw %struct.VAAPIDeviceContext, ptr %18, i32 0, i32 0
  store ptr %19, ptr %5, align 8, !tbaa !52
  call void @llvm.lifetime.start.p0(i64 8, ptr %6) #10
  store ptr null, ptr %6, align 8, !tbaa !54
  call void @llvm.lifetime.start.p0(i64 4, ptr %7) #10
  call void @llvm.lifetime.start.p0(i64 8, ptr %8) #10
  call void @llvm.lifetime.start.p0(i64 4, ptr %9) #10
  call void @llvm.lifetime.start.p0(i64 4, ptr %10) #10
  call void @llvm.lifetime.start.p0(i64 4, ptr %11) #10
  call void @llvm.lifetime.start.p0(i64 4, ptr %12) #10
  call void @llvm.lifetime.start.p0(i64 4, ptr %13) #10
  %20 = load ptr, ptr %5, align 8, !tbaa !52
  %21 = getelementptr inbounds nuw %struct.AVVAAPIDeviceContext, ptr %20, i32 0, i32 0
  %22 = load ptr, ptr %21, align 8, !tbaa !56
  %23 = call i32 @vaMaxNumImageFormats(ptr noundef %22)
  store i32 %23, ptr %11, align 4, !tbaa !13
  %24 = load i32, ptr %11, align 4, !tbaa !13
  %25 = icmp sle i32 %24, 0
  br i1 %25, label %26, label %27

26:                                               ; preds = %1
  store i32 -5, ptr %9, align 4, !tbaa !13
  br label %190

27:                                               ; preds = %1
  %28 = load i32, ptr %11, align 4, !tbaa !13
  %29 = sext i32 %28 to i64
  %30 = mul i64 %29, 48
  %31 = call noalias ptr @av_malloc(i64 noundef %30)
  store ptr %31, ptr %6, align 8, !tbaa !54
  %32 = load ptr, ptr %6, align 8, !tbaa !54
  %33 = icmp ne ptr %32, null
  br i1 %33, label %35, label %34

34:                                               ; preds = %27
  store i32 -12, ptr %9, align 4, !tbaa !13
  br label %190

35:                                               ; preds = %27
  %36 = load ptr, ptr %5, align 8, !tbaa !52
  %37 = getelementptr inbounds nuw %struct.AVVAAPIDeviceContext, ptr %36, i32 0, i32 0
  %38 = load ptr, ptr %37, align 8, !tbaa !56
  %39 = load ptr, ptr %6, align 8, !tbaa !54
  %40 = call i32 @vaQueryImageFormats(ptr noundef %38, ptr noundef %39, ptr noundef %11)
  store i32 %40, ptr %7, align 4, !tbaa !13
  %41 = load i32, ptr %7, align 4, !tbaa !13
  %42 = icmp ne i32 %41, 0
  br i1 %42, label %43, label %44

43:                                               ; preds = %35
  store i32 -5, ptr %9, align 4, !tbaa !13
  br label %190

44:                                               ; preds = %35
  %45 = load i32, ptr %11, align 4, !tbaa !13
  %46 = sext i32 %45 to i64
  %47 = mul i64 %46, 52
  %48 = call noalias ptr @av_malloc(i64 noundef %47)
  %49 = load ptr, ptr %4, align 8, !tbaa !50
  %50 = getelementptr inbounds nuw %struct.VAAPIDeviceContext, ptr %49, i32 0, i32 1
  store ptr %48, ptr %50, align 8, !tbaa !58
  %51 = load ptr, ptr %4, align 8, !tbaa !50
  %52 = getelementptr inbounds nuw %struct.VAAPIDeviceContext, ptr %51, i32 0, i32 1
  %53 = load ptr, ptr %52, align 8, !tbaa !58
  %54 = icmp ne ptr %53, null
  br i1 %54, label %56, label %55

55:                                               ; preds = %44
  store i32 -12, ptr %9, align 4, !tbaa !13
  br label %190

56:                                               ; preds = %44
  %57 = load ptr, ptr %4, align 8, !tbaa !50
  %58 = getelementptr inbounds nuw %struct.VAAPIDeviceContext, ptr %57, i32 0, i32 2
  store i32 0, ptr %58, align 8, !tbaa !61
  store i32 0, ptr %10, align 4, !tbaa !13
  br label %59

59:                                               ; preds = %110, %56
  %60 = load i32, ptr %10, align 4, !tbaa !13
  %61 = load i32, ptr %11, align 4, !tbaa !13
  %62 = icmp slt i32 %60, %61
  br i1 %62, label %63, label %113

63:                                               ; preds = %59
  %64 = load ptr, ptr %6, align 8, !tbaa !54
  %65 = load i32, ptr %10, align 4, !tbaa !13
  %66 = sext i32 %65 to i64
  %67 = getelementptr inbounds %struct._VAImageFormat, ptr %64, i64 %66
  %68 = getelementptr inbounds nuw %struct._VAImageFormat, ptr %67, i32 0, i32 0
  %69 = load i32, ptr %68, align 4, !tbaa !62
  store i32 %69, ptr %13, align 4, !tbaa !13
  %70 = load i32, ptr %13, align 4, !tbaa !13
  %71 = call i32 @vaapi_pix_fmt_from_fourcc(i32 noundef %70)
  store i32 %71, ptr %12, align 4, !tbaa !13
  %72 = load i32, ptr %12, align 4, !tbaa !13
  %73 = icmp eq i32 %72, -1
  br i1 %73, label %74, label %77

74:                                               ; preds = %63
  %75 = load ptr, ptr %3, align 8, !tbaa !4
  %76 = load i32, ptr %13, align 4, !tbaa !13
  call void (ptr, i32, ptr, ...) @av_log(ptr noundef %75, i32 noundef 48, ptr noundef @.str.40, i32 noundef %76)
  br label %109

77:                                               ; preds = %63
  %78 = load ptr, ptr %3, align 8, !tbaa !4
  %79 = load i32, ptr %13, align 4, !tbaa !13
  %80 = load i32, ptr %12, align 4, !tbaa !13
  %81 = call ptr @av_get_pix_fmt_name(i32 noundef %80)
  call void (ptr, i32, ptr, ...) @av_log(ptr noundef %78, i32 noundef 48, ptr noundef @.str.41, i32 noundef %79, ptr noundef %81)
  %82 = load i32, ptr %12, align 4, !tbaa !13
  %83 = load ptr, ptr %4, align 8, !tbaa !50
  %84 = getelementptr inbounds nuw %struct.VAAPIDeviceContext, ptr %83, i32 0, i32 1
  %85 = load ptr, ptr %84, align 8, !tbaa !58
  %86 = load ptr, ptr %4, align 8, !tbaa !50
  %87 = getelementptr inbounds nuw %struct.VAAPIDeviceContext, ptr %86, i32 0, i32 2
  %88 = load i32, ptr %87, align 8, !tbaa !61
  %89 = sext i32 %88 to i64
  %90 = getelementptr inbounds %struct.VAAPISurfaceFormat, ptr %85, i64 %89
  %91 = getelementptr inbounds nuw %struct.VAAPISurfaceFormat, ptr %90, i32 0, i32 0
  store i32 %82, ptr %91, align 4, !tbaa !64
  %92 = load ptr, ptr %4, align 8, !tbaa !50
  %93 = getelementptr inbounds nuw %struct.VAAPIDeviceContext, ptr %92, i32 0, i32 1
  %94 = load ptr, ptr %93, align 8, !tbaa !58
  %95 = load ptr, ptr %4, align 8, !tbaa !50
  %96 = getelementptr inbounds nuw %struct.VAAPIDeviceContext, ptr %95, i32 0, i32 2
  %97 = load i32, ptr %96, align 8, !tbaa !61
  %98 = sext i32 %97 to i64
  %99 = getelementptr inbounds %struct.VAAPISurfaceFormat, ptr %94, i64 %98
  %100 = getelementptr inbounds nuw %struct.VAAPISurfaceFormat, ptr %99, i32 0, i32 1
  %101 = load ptr, ptr %6, align 8, !tbaa !54
  %102 = load i32, ptr %10, align 4, !tbaa !13
  %103 = sext i32 %102 to i64
  %104 = getelementptr inbounds %struct._VAImageFormat, ptr %101, i64 %103
  call void @llvm.memcpy.p0.p0.i64(ptr align 4 %100, ptr align 4 %104, i64 48, i1 false), !tbaa.struct !66
  %105 = load ptr, ptr %4, align 8, !tbaa !50
  %106 = getelementptr inbounds nuw %struct.VAAPIDeviceContext, ptr %105, i32 0, i32 2
  %107 = load i32, ptr %106, align 8, !tbaa !61
  %108 = add nsw i32 %107, 1
  store i32 %108, ptr %106, align 8, !tbaa !61
  br label %109

109:                                              ; preds = %77, %74
  br label %110

110:                                              ; preds = %109
  %111 = load i32, ptr %10, align 4, !tbaa !13
  %112 = add nsw i32 %111, 1
  store i32 %112, ptr %10, align 4, !tbaa !13
  br label %59, !llvm.loop !67

113:                                              ; preds = %59
  %114 = load ptr, ptr %5, align 8, !tbaa !52
  %115 = getelementptr inbounds nuw %struct.AVVAAPIDeviceContext, ptr %114, i32 0, i32 0
  %116 = load ptr, ptr %115, align 8, !tbaa !56
  %117 = call ptr @vaQueryVendorString(ptr noundef %116)
  store ptr %117, ptr %8, align 8, !tbaa !9
  %118 = load ptr, ptr %8, align 8, !tbaa !9
  %119 = icmp ne ptr %118, null
  br i1 %119, label %120, label %123

120:                                              ; preds = %113
  %121 = load ptr, ptr %3, align 8, !tbaa !4
  %122 = load ptr, ptr %8, align 8, !tbaa !9
  call void (ptr, i32, ptr, ...) @av_log(ptr noundef %121, i32 noundef 40, ptr noundef @.str.42, ptr noundef %122)
  br label %123

123:                                              ; preds = %120, %113
  %124 = load ptr, ptr %5, align 8, !tbaa !52
  %125 = getelementptr inbounds nuw %struct.AVVAAPIDeviceContext, ptr %124, i32 0, i32 1
  %126 = load i32, ptr %125, align 8, !tbaa !68
  %127 = and i32 %126, 1
  %128 = icmp ne i32 %127, 0
  br i1 %128, label %129, label %134

129:                                              ; preds = %123
  %130 = load ptr, ptr %3, align 8, !tbaa !4
  %131 = load ptr, ptr %5, align 8, !tbaa !52
  %132 = getelementptr inbounds nuw %struct.AVVAAPIDeviceContext, ptr %131, i32 0, i32 1
  %133 = load i32, ptr %132, align 8, !tbaa !68
  call void (ptr, i32, ptr, ...) @av_log(ptr noundef %130, i32 noundef 40, ptr noundef @.str.43, i32 noundef %133)
  br label %188

134:                                              ; preds = %123
  %135 = load ptr, ptr %5, align 8, !tbaa !52
  %136 = getelementptr inbounds nuw %struct.AVVAAPIDeviceContext, ptr %135, i32 0, i32 1
  store i32 0, ptr %136, align 8, !tbaa !68
  %137 = load ptr, ptr %8, align 8, !tbaa !9
  %138 = icmp ne ptr %137, null
  br i1 %138, label %139, label %185

139:                                              ; preds = %134
  store i32 0, ptr %10, align 4, !tbaa !13
  br label %140

140:                                              ; preds = %175, %139
  %141 = load i32, ptr %10, align 4, !tbaa !13
  %142 = sext i32 %141 to i64
  %143 = icmp ult i64 %142, 2
  br i1 %143, label %144, label %178

144:                                              ; preds = %140
  %145 = load ptr, ptr %8, align 8, !tbaa !9
  %146 = load i32, ptr %10, align 4, !tbaa !13
  %147 = sext i32 %146 to i64
  %148 = getelementptr inbounds [2 x %struct.anon], ptr @vaapi_driver_quirks_table, i64 0, i64 %147
  %149 = getelementptr inbounds nuw %struct.anon, ptr %148, i32 0, i32 1
  %150 = load ptr, ptr %149, align 8, !tbaa !69
  %151 = call ptr @strstr(ptr noundef %145, ptr noundef %150) #11
  %152 = icmp ne ptr %151, null
  br i1 %152, label %153, label %174

153:                                              ; preds = %144
  %154 = load ptr, ptr %3, align 8, !tbaa !4
  %155 = load i32, ptr %10, align 4, !tbaa !13
  %156 = sext i32 %155 to i64
  %157 = getelementptr inbounds [2 x %struct.anon], ptr @vaapi_driver_quirks_table, i64 0, i64 %156
  %158 = getelementptr inbounds nuw %struct.anon, ptr %157, i32 0, i32 0
  %159 = load ptr, ptr %158, align 8, !tbaa !71
  %160 = load i32, ptr %10, align 4, !tbaa !13
  %161 = sext i32 %160 to i64
  %162 = getelementptr inbounds [2 x %struct.anon], ptr @vaapi_driver_quirks_table, i64 0, i64 %161
  %163 = getelementptr inbounds nuw %struct.anon, ptr %162, i32 0, i32 2
  %164 = load i32, ptr %163, align 8, !tbaa !72
  call void (ptr, i32, ptr, ...) @av_log(ptr noundef %154, i32 noundef 40, ptr noundef @.str.44, ptr noundef %159, i32 noundef %164)
  %165 = load i32, ptr %10, align 4, !tbaa !13
  %166 = sext i32 %165 to i64
  %167 = getelementptr inbounds [2 x %struct.anon], ptr @vaapi_driver_quirks_table, i64 0, i64 %166
  %168 = getelementptr inbounds nuw %struct.anon, ptr %167, i32 0, i32 2
  %169 = load i32, ptr %168, align 8, !tbaa !72
  %170 = load ptr, ptr %5, align 8, !tbaa !52
  %171 = getelementptr inbounds nuw %struct.AVVAAPIDeviceContext, ptr %170, i32 0, i32 1
  %172 = load i32, ptr %171, align 8, !tbaa !68
  %173 = or i32 %172, %169
  store i32 %173, ptr %171, align 8, !tbaa !68
  br label %178

174:                                              ; preds = %144
  br label %175

175:                                              ; preds = %174
  %176 = load i32, ptr %10, align 4, !tbaa !13
  %177 = add nsw i32 %176, 1
  store i32 %177, ptr %10, align 4, !tbaa !13
  br label %140, !llvm.loop !73

178:                                              ; preds = %153, %140
  %179 = load i32, ptr %10, align 4, !tbaa !13
  %180 = sext i32 %179 to i64
  %181 = icmp ult i64 %180, 2
  br i1 %181, label %184, label %182

182:                                              ; preds = %178
  %183 = load ptr, ptr %3, align 8, !tbaa !4
  call void (ptr, i32, ptr, ...) @av_log(ptr noundef %183, i32 noundef 40, ptr noundef @.str.45)
  br label %184

184:                                              ; preds = %182, %178
  br label %187

185:                                              ; preds = %134
  %186 = load ptr, ptr %3, align 8, !tbaa !4
  call void (ptr, i32, ptr, ...) @av_log(ptr noundef %186, i32 noundef 40, ptr noundef @.str.46)
  br label %187

187:                                              ; preds = %185, %184
  br label %188

188:                                              ; preds = %187, %129
  %189 = load ptr, ptr %6, align 8, !tbaa !54
  call void @av_free(ptr noundef %189)
  store i32 0, ptr %2, align 4
  store i32 1, ptr %14, align 4
  br label %195

190:                                              ; preds = %55, %43, %34, %26
  %191 = load ptr, ptr %4, align 8, !tbaa !50
  %192 = getelementptr inbounds nuw %struct.VAAPIDeviceContext, ptr %191, i32 0, i32 1
  call void @av_freep(ptr noundef %192)
  %193 = load ptr, ptr %6, align 8, !tbaa !54
  call void @av_free(ptr noundef %193)
  %194 = load i32, ptr %9, align 4, !tbaa !13
  store i32 %194, ptr %2, align 4
  store i32 1, ptr %14, align 4
  br label %195

195:                                              ; preds = %190, %188
  call void @llvm.lifetime.end.p0(i64 4, ptr %13) #10
  call void @llvm.lifetime.end.p0(i64 4, ptr %12) #10
  call void @llvm.lifetime.end.p0(i64 4, ptr %11) #10
  call void @llvm.lifetime.end.p0(i64 4, ptr %10) #10
  call void @llvm.lifetime.end.p0(i64 4, ptr %9) #10
  call void @llvm.lifetime.end.p0(i64 8, ptr %8) #10
  call void @llvm.lifetime.end.p0(i64 4, ptr %7) #10
  call void @llvm.lifetime.end.p0(i64 8, ptr %6) #10
  call void @llvm.lifetime.end.p0(i64 8, ptr %5) #10
  call void @llvm.lifetime.end.p0(i64 8, ptr %4) #10
  %196 = load i32, ptr %2, align 4
  ret i32 %196
}