; Function Attrs: nounwind uwtable
define internal range(i32 -12, 1) i32 @vaapi_device_init(ptr noundef %0) #0 {
  %2 = alloca i32, align 4
  %3 = getelementptr inbounds nuw i8, ptr %0, i64 16
  %4 = load ptr, ptr %3, align 8, !tbaa !31
  call void @llvm.lifetime.start.p0(i64 4, ptr nonnull %2) #11
  %5 = load ptr, ptr %4, align 8, !tbaa !34
  %6 = tail call i32 @vaMaxNumImageFormats(ptr noundef %5) #11
  store i32 %6, ptr %2, align 4, !tbaa !26
  %7 = icmp slt i32 %6, 1
  br i1 %7, label %72, label %8

8:                                                ; preds = %1
  %9 = zext nneg i32 %6 to i64
  %10 = mul nuw nsw i64 %9, 48
  %11 = tail call noalias ptr @av_malloc(i64 noundef %10) #11
  %.not = icmp eq ptr %11, null
  br i1 %.not, label %72, label %12

12:                                               ; preds = %8
  %13 = load ptr, ptr %4, align 8, !tbaa !34
  %14 = call i32 @vaQueryImageFormats(ptr noundef %13, ptr noundef nonnull %11, ptr noundef nonnull %2) #11
  %.not64 = icmp eq i32 %14, 0
  br i1 %.not64, label %15, label %72

15:                                               ; preds = %12
  %16 = load i32, ptr %2, align 4, !tbaa !26
  %17 = sext i32 %16 to i64
  %18 = mul nsw i64 %17, 52
  %19 = call noalias ptr @av_malloc(i64 noundef %18) #11
  %20 = getelementptr inbounds nuw i8, ptr %4, i64 16
  store ptr %19, ptr %20, align 8, !tbaa !36
  %.not65 = icmp eq ptr %19, null
  br i1 %.not65, label %72, label %21

21:                                               ; preds = %15
  %22 = getelementptr inbounds nuw i8, ptr %4, i64 24
  store i32 0, ptr %22, align 8, !tbaa !39
  %23 = load i32, ptr %2, align 4, !tbaa !26
  %24 = icmp sgt i32 %23, 0
  br i1 %24, label %.lr.ph, label %._crit_edge

.lr.ph:                                           ; preds = %21, %44
  %indvars.iv = phi i64 [ %indvars.iv.next, %44 ], [ 0, %21 ]
  %25 = getelementptr inbounds nuw %struct._VAImageFormat, ptr %11, i64 %indvars.iv
  %26 = load i32, ptr %25, align 4, !tbaa !40
  br label %28

27:                                               ; preds = %28
  %indvars.iv.next.i.i = add nuw nsw i64 %indvars.iv.i.i, 1
  %exitcond.not.i.i = icmp eq i64 %indvars.iv.next.i.i, 28
  br i1 %exitcond.not.i.i, label %vaapi_pix_fmt_from_fourcc.exit.thread, label %28, !llvm.loop !42

28:                                               ; preds = %27, %.lr.ph
  %indvars.iv.i.i = phi i64 [ 0, %.lr.ph ], [ %indvars.iv.next.i.i, %27 ]
  %29 = getelementptr inbounds nuw [28 x %struct.VAAPIFormat], ptr @vaapi_format_map, i64 0, i64 %indvars.iv.i.i
  %30 = load i32, ptr %29, align 16, !tbaa !43
  %31 = icmp eq i32 %30, %26
  br i1 %31, label %vaapi_pix_fmt_from_fourcc.exit, label %27

vaapi_pix_fmt_from_fourcc.exit:                   ; preds = %28
  %32 = getelementptr inbounds nuw i8, ptr %29, i64 8
  %33 = load i32, ptr %32, align 4, !tbaa !45
  %34 = icmp eq i32 %33, -1
  br i1 %34, label %vaapi_pix_fmt_from_fourcc.exit.thread, label %35

vaapi_pix_fmt_from_fourcc.exit.thread:            ; preds = %27, %vaapi_pix_fmt_from_fourcc.exit
  call void (ptr, i32, ptr, ...) @av_log(ptr noundef %0, i32 noundef 48, ptr noundef nonnull @.str.40, i32 noundef %26) #11
  br label %44

35:                                               ; preds = %vaapi_pix_fmt_from_fourcc.exit
  %36 = call ptr @av_get_pix_fmt_name(i32 noundef %33) #11
  call void (ptr, i32, ptr, ...) @av_log(ptr noundef %0, i32 noundef 48, ptr noundef nonnull @.str.41, i32 noundef %26, ptr noundef %36) #11
  %37 = load ptr, ptr %20, align 8, !tbaa !36
  %38 = load i32, ptr %22, align 8, !tbaa !39
  %39 = sext i32 %38 to i64
  %40 = getelementptr inbounds %struct.VAAPISurfaceFormat, ptr %37, i64 %39
  store i32 %33, ptr %40, align 4, !tbaa !46
  %41 = getelementptr inbounds %struct.VAAPISurfaceFormat, ptr %37, i64 %39, i32 1
  call void @llvm.memcpy.p0.p0.i64(ptr noundef nonnull align 4 dereferenceable(48) %41, ptr noundef nonnull align 4 dereferenceable(48) %25, i64 48, i1 false), !tbaa.struct !48
  %42 = load i32, ptr %22, align 8, !tbaa !39
  %43 = add nsw i32 %42, 1
  store i32 %43, ptr %22, align 8, !tbaa !39
  br label %44

44:                                               ; preds = %vaapi_pix_fmt_from_fourcc.exit.thread, %35
  %indvars.iv.next = add nuw nsw i64 %indvars.iv, 1
  %45 = load i32, ptr %2, align 4, !tbaa !26
  %46 = sext i32 %45 to i64
  %47 = icmp slt i64 %indvars.iv.next, %46
  br i1 %47, label %.lr.ph, label %._crit_edge, !llvm.loop !49

._crit_edge:                                      ; preds = %44, %21
  %48 = load ptr, ptr %4, align 8, !tbaa !34
  %49 = call ptr @vaQueryVendorString(ptr noundef %48) #11
  %.not66 = icmp eq ptr %49, null
  br i1 %.not66, label %50, label %.thread

50:                                               ; preds = %._crit_edge
  %51 = getelementptr inbounds nuw i8, ptr %4, i64 8
  %52 = load i32, ptr %51, align 8, !tbaa !50
  %53 = and i32 %52, 1
  %.not67 = icmp eq i32 %53, 0
  br i1 %.not67, label %71, label %57

.thread:                                          ; preds = %._crit_edge
  call void (ptr, i32, ptr, ...) @av_log(ptr noundef %0, i32 noundef 40, ptr noundef nonnull @.str.42, ptr noundef nonnull %49) #11
  %54 = getelementptr inbounds nuw i8, ptr %4, i64 8
  %55 = load i32, ptr %54, align 8, !tbaa !50
  %56 = and i32 %55, 1
  %.not6781 = icmp eq i32 %56, 0
  br i1 %.not6781, label %.preheader.preheader, label %57

57:                                               ; preds = %.thread, %50
  %58 = phi i32 [ %55, %.thread ], [ %52, %50 ]
  call void (ptr, i32, ptr, ...) @av_log(ptr noundef %0, i32 noundef 40, ptr noundef nonnull @.str.43, i32 noundef %58) #11
  br label %74

.preheader.preheader:                             ; preds = %.thread
  store i32 0, ptr %54, align 8, !tbaa !50
  br label %.preheader

59:                                               ; preds = %.preheader
  br i1 %60, label %.preheader, label %.critedge, !llvm.loop !51

.preheader:                                       ; preds = %.preheader.preheader, %59
  %60 = phi i1 [ true, %.preheader.preheader ], [ false, %59 ]
  %indvars.iv78 = phi i64 [ 0, %.preheader.preheader ], [ 1, %59 ]
  %61 = getelementptr inbounds nuw [2 x %struct.anon], ptr @vaapi_driver_quirks_table, i64 0, i64 %indvars.iv78
  %62 = getelementptr inbounds nuw i8, ptr %61, i64 8
  %63 = load ptr, ptr %62, align 8, !tbaa !52
  %64 = call ptr @strstr(ptr noundef nonnull dereferenceable(1) %49, ptr noundef nonnull dereferenceable(1) %63) #12
  %.not68 = icmp eq ptr %64, null
  br i1 %.not68, label %59, label %65

65:                                               ; preds = %.preheader
  %66 = load ptr, ptr %61, align 8, !tbaa !54
  %67 = getelementptr inbounds nuw i8, ptr %61, i64 16
  %68 = load i32, ptr %67, align 8, !tbaa !55
  call void (ptr, i32, ptr, ...) @av_log(ptr noundef %0, i32 noundef 40, ptr noundef nonnull @.str.44, ptr noundef %66, i32 noundef %68) #11
  %69 = load i32, ptr %54, align 8, !tbaa !50
  %70 = or i32 %69, %68
  store i32 %70, ptr %54, align 8, !tbaa !50
  br label %74

.critedge:                                        ; preds = %59
  call void (ptr, i32, ptr, ...) @av_log(ptr noundef %0, i32 noundef 40, ptr noundef nonnull @.str.45) #11
  br label %74

71:                                               ; preds = %50
  store i32 0, ptr %51, align 8, !tbaa !50
  call void (ptr, i32, ptr, ...) @av_log(ptr noundef %0, i32 noundef 40, ptr noundef nonnull @.str.46) #11
  br label %74

72:                                               ; preds = %15, %12, %8, %1
  %.056 = phi i32 [ -5, %1 ], [ -12, %8 ], [ -5, %12 ], [ -12, %15 ]
  %.054 = phi ptr [ null, %1 ], [ null, %8 ], [ %11, %12 ], [ %11, %15 ]
  %73 = getelementptr inbounds nuw i8, ptr %4, i64 16
  call void @av_freep(ptr noundef nonnull %73) #11
  br label %74

74:                                               ; preds = %57, %.critedge, %71, %65, %72
  %.054.sink = phi ptr [ %.054, %72 ], [ %11, %65 ], [ %11, %71 ], [ %11, %.critedge ], [ %11, %57 ]
  %.0 = phi i32 [ %.056, %72 ], [ 0, %65 ], [ 0, %71 ], [ 0, %.critedge ], [ 0, %57 ]
  call void @av_free(ptr noundef %.054.sink) #11
  call void @llvm.lifetime.end.p0(i64 4, ptr nonnull %2) #11
  ret i32 %.0
}